; Function Attrs: mustprogress nounwind uwtable
define hidden void @_ZN4cvc58internal6theory2ff18TheoryFiniteFieldsD0Ev(ptr noundef nonnull align 8 dereferenceable(768) initializes((0, 8)) %0) unnamed_addr #5 align 2 personality ptr @__gxx_personality_v0 {
  store ptr getelementptr inbounds nuw inrange(-16, 272) (i8, ptr @_ZTVN4cvc58internal6theory2ff18TheoryFiniteFieldsE, i64 16), ptr %0, align 8, !tbaa !3
  %2 = getelementptr inbounds nuw i8, ptr %0, i64 760
  %3 = load ptr, ptr %2, align 8, !tbaa !56
  %.not.i.i = icmp eq ptr %3, null
  br i1 %.not.i.i, label %_ZNSt10unique_ptrIN4cvc58internal6theory2ff12FfStatisticsESt14default_deleteIS4_EED2Ev.exit.i, label %_ZNKSt14default_deleteIN4cvc58internal6theory2ff12FfStatisticsEEclEPS4_.exit.i.i

_ZNKSt14default_deleteIN4cvc58internal6theory2ff12FfStatisticsEEclEPS4_.exit.i.i: ; preds = %1
  tail call void @_ZdlPvm(ptr noundef nonnull %3, i64 noundef 32) #26
  br label %_ZNSt10unique_ptrIN4cvc58internal6theory2ff12FfStatisticsESt14default_deleteIS4_EED2Ev.exit.i

_ZNSt10unique_ptrIN4cvc58internal6theory2ff12FfStatisticsESt14default_deleteIS4_EED2Ev.exit.i: ; preds = %_ZNKSt14default_deleteIN4cvc58internal6theory2ff12FfStatisticsEEclEPS4_.exit.i.i, %1
  store ptr null, ptr %2, align 8, !tbaa !56
  %4 = getelementptr inbounds nuw i8, ptr %0, i64 504
  tail call void @_ZN4cvc58internal6theory22TheoryInferenceManagerD1Ev(ptr noundef nonnull align 8 dereferenceable(240) %4) #24
  %5 = getelementptr inbounds nuw i8, ptr %0, i64 344
  tail call void @_ZN4cvc58internal6theory11TheoryStateD2Ev(ptr noundef nonnull align 8 dereferenceable(160) %5) #24
  %6 = getelementptr inbounds nuw i8, ptr %0, i64 280
  store ptr getelementptr inbounds nuw inrange(-16, 88) (i8, ptr @_ZTVN4cvc58internal6theory14TheoryRewriterE, i64 16), ptr %6, align 8, !tbaa !3
  %7 = getelementptr inbounds nuw i8, ptr %0, i64 296
  %8 = getelementptr inbounds nuw i8, ptr %0, i64 312
  %9 = load ptr, ptr %8, align 8, !tbaa !73
  invoke void @_ZNSt8_Rb_treeIN4cvc58internal6theory16TheoryRewriteCtxESt4pairIKS3_St6vectorINS0_16ProofRewriteRuleESaIS7_EEESt10_Select1stISA_ESt4lessIS3_ESaISA_EE8_M_eraseEPSt13_Rb_tree_nodeISA_E(ptr noundef nonnull align 8 dereferenceable(48) %7, ptr noundef %9)
          to label %_ZN4cvc58internal6theory2ff18TheoryFiniteFieldsD2Ev.exit unwind label %10

10:                                               ; preds = %_ZNSt10unique_ptrIN4cvc58internal6theory2ff12FfStatisticsESt14default_deleteIS4_EED2Ev.exit.i
  %11 = landingpad { ptr, i32 }
          catch ptr null
  %12 = extractvalue { ptr, i32 } %11, 0
  tail call void @__clang_call_terminate(ptr %12) #28
  unreachable

_ZN4cvc58internal6theory2ff18TheoryFiniteFieldsD2Ev.exit: ; preds = %_ZNSt10unique_ptrIN4cvc58internal6theory2ff12FfStatisticsESt14default_deleteIS4_EED2Ev.exit.i
  tail call void @_ZN4cvc58internal6theory6TheoryD2Ev(ptr noundef nonnull align 8 dereferenceable(768) %0) #24
  tail call void @_ZdlPvm(ptr noundef nonnull %0, i64 noundef 768) #26
  ret void
}